target datalayout = "e-m:e-p270:32:32-p271:32:32-p272:64:64-i64:64-i128:128-f80:128-n8:16:32:64-S128"
target triple = "x86_64-pc-linux-gnu"

%"struct.Luau::CodeGen::CodeAllocator" = type { ptr, ptr, ptr, ptr, ptr, %"class.std::vector", %"class.std::vector.0", i64, i64, ptr, ptr }
%"class.std::vector" = type { %"struct.std::_Vector_base" }
%"struct.std::_Vector_base" = type { %"struct.std::_Vector_base<unsigned char *, std::allocator<unsigned char *>>::_Vector_impl" }
%"struct.std::_Vector_base<unsigned char *, std::allocator<unsigned char *>>::_Vector_impl" = type { %"struct.std::_Vector_base<unsigned char *, std::allocator<unsigned char *>>::_Vector_impl_data" }
%"struct.std::_Vector_base<unsigned char *, std::allocator<unsigned char *>>::_Vector_impl_data" = type { ptr, ptr, ptr }
%"class.std::vector.0" = type { %"struct.std::_Vector_base.1" }
%"struct.std::_Vector_base.1" = type { %"struct.std::_Vector_base<void *, std::allocator<void *>>::_Vector_impl" }
%"struct.std::_Vector_base<void *, std::allocator<void *>>::_Vector_impl" = type { %"struct.std::_Vector_base<void *, std::allocator<void *>>::_Vector_impl_data" }
%"struct.std::_Vector_base<void *, std::allocator<void *>>::_Vector_impl_data" = type { ptr, ptr, ptr }

@_ZL9kPageSize = internal global i64 0, align 8

; Function Attrs: mustprogress nounwind uwtable
define internal noundef ptr @_ZL17allocatePagesImplm(i64 noundef %0) #4 {
  %2 = alloca i64, align 8
  %3 = alloca ptr, align 8
  store i64 %0, ptr %2, align 8, !tbaa !4
  call void @llvm.lifetime.start.p0(i64 8, ptr %3) #8
  %4 = load i64, ptr %2, align 8, !tbaa !4
  %5 = call ptr @mmap(ptr noundef null, i64 noundef %4, i32 noundef 3, i32 noundef 34, i32 noundef -1, i64 noundef 0) #8
  store ptr %5, ptr %3, align 8, !tbaa !11
  %6 = load ptr, ptr %3, align 8, !tbaa !11
  %7 = icmp eq ptr %6, inttoptr (i64 -1 to ptr)
  br i1 %7, label %8, label %9

8:                                                ; preds = %1
  br label %11

9:                                                ; preds = %1
  %10 = load ptr, ptr %3, align 8, !tbaa !11
  br label %11

11:                                               ; preds = %9, %8
  %12 = phi ptr [ null, %8 ], [ %10, %9 ]
  call void @llvm.lifetime.end.p0(i64 8, ptr %3) #8
  ret ptr %12
}

; Function Attrs: mustprogress nounwind uwtable
define internal noundef i64 @_ZL15alignToPageSizem(i64 noundef %0) #4 {
  %2 = alloca i64, align 8
  store i64 %0, ptr %2, align 8, !tbaa !4
  %3 = load i64, ptr %2, align 8, !tbaa !4
  %4 = load i64, ptr @_ZL9kPageSize, align 8, !tbaa !4
  %5 = add i64 %3, %4
  %6 = sub i64 %5, 1
  %7 = load i64, ptr @_ZL9kPageSize, align 8, !tbaa !4
  %8 = sub i64 %7, 1
  %9 = xor i64 %8, -1
  %10 = and i64 %6, %9
  ret i64 %10
}

; Function Attrs: mustprogress uwtable
define dso_local noundef ptr @_ZNK4Luau7CodeGen13CodeAllocator13allocatePagesEm(ptr noundef nonnull align 8 dereferenceable(120) %0, i64 noundef %1) #3 align 2 {
  %3 = alloca ptr, align 8
  %4 = alloca ptr, align 8
  %5 = alloca i64, align 8
  %6 = alloca i64, align 8
  %7 = alloca ptr, align 8
  %8 = alloca i32, align 4
  store ptr %0, ptr %4, align 8, !tbaa !8
  store i64 %1, ptr %5, align 8, !tbaa !4
  %9 = load ptr, ptr %4, align 8
  call void @llvm.lifetime.start.p0(i64 8, ptr %6) #8
  %10 = load i64, ptr %5, align 8, !tbaa !4
  %11 = call noundef i64 @_ZL15alignToPageSizem(i64 noundef %10)
  store i64 %11, ptr %6, align 8, !tbaa !4
  call void @llvm.lifetime.start.p0(i64 8, ptr %7) #8
  %12 = load i64, ptr %6, align 8, !tbaa !4
  %13 = call noundef ptr @_ZL17allocatePagesImplm(i64 noundef %12)
  store ptr %13, ptr %7, align 8, !tbaa !37
  %14 = load ptr, ptr %7, align 8, !tbaa !37
  %15 = icmp eq ptr %14, null
  br i1 %15, label %16, label %17

16:                                               ; preds = %2
  store ptr null, ptr %3, align 8
  store i32 1, ptr %8, align 4
  br label %30

17:                                               ; preds = %2
  %18 = getelementptr inbounds nuw %"struct.Luau::CodeGen::CodeAllocator", ptr %9, i32 0, i32 9
  %19 = load ptr, ptr %18, align 8, !tbaa !31
  %20 = icmp ne ptr %19, null
  br i1 %20, label %21, label %28

21:                                               ; preds = %17
  %22 = getelementptr inbounds nuw %"struct.Luau::CodeGen::CodeAllocator", ptr %9, i32 0, i32 9
  %23 = load ptr, ptr %22, align 8, !tbaa !31
  %24 = getelementptr inbounds nuw %"struct.Luau::CodeGen::CodeAllocator", ptr %9, i32 0, i32 10
  %25 = load ptr, ptr %24, align 8, !tbaa !32
  %26 = load ptr, ptr %7, align 8, !tbaa !37
  %27 = load i64, ptr %6, align 8, !tbaa !4
  call void %23(ptr noundef %25, ptr noundef null, i64 noundef 0, ptr noundef %26, i64 noundef %27)
  br label %28

28:                                               ; preds = %21, %17
  %29 = load ptr, ptr %7, align 8, !tbaa !37
  store ptr %29, ptr %3, align 8
  store i32 1, ptr %8, align 4
  br label %30

30:                                               ; preds = %28, %16
  call void @llvm.lifetime.end.p0(i64 8, ptr %7) #8
  call void @llvm.lifetime.end.p0(i64 8, ptr %6) #8
  %31 = load ptr, ptr %3, align 8
  ret ptr %31
}