; Function Attrs: mustprogress uwtable
define dso_local noundef ptr @_ZNK4Luau7CodeGen13CodeAllocator13allocatePagesEm(ptr noundef nonnull readonly align 8 captures(none) dereferenceable(120) %0, i64 noundef %1) local_unnamed_addr #6 align 2 {
  %3 = load i64, ptr @_ZL9kPageSize, align 8, !tbaa !34
  %4 = add i64 %1, -1
  %5 = add i64 %4, %3
  %6 = sub i64 0, %3
  %7 = and i64 %5, %6
  %8 = tail call ptr @mmap(ptr noundef null, i64 noundef %7, i32 noundef 3, i32 noundef 34, i32 noundef -1, i64 noundef 0) #8
  %magicptr = ptrtoint ptr %8 to i64
  switch i64 %magicptr, label %9 [
    i64 -1, label %15
    i64 0, label %15
  ]

9:                                                ; preds = %2
  %10 = getelementptr inbounds nuw i8, ptr %0, i64 104
  %11 = load ptr, ptr %10, align 8, !tbaa !22
  %.not = icmp eq ptr %11, null
  br i1 %.not, label %15, label %12

12:                                               ; preds = %9
  %13 = getelementptr inbounds nuw i8, ptr %0, i64 112
  %14 = load ptr, ptr %13, align 8, !tbaa !23
  tail call void %11(ptr noundef %14, ptr noundef null, i64 noundef 0, ptr noundef nonnull %8, i64 noundef %7)
  br label %15

15:                                               ; preds = %2, %2, %9, %12
  %.0 = phi ptr [ null, %2 ], [ %8, %12 ], [ %8, %9 ], [ null, %2 ]
  ret ptr %.0
}